target datalayout = "e-m:e-p270:32:32-p271:32:32-p272:64:64-i64:64-i128:128-f80:128-n8:16:32:64-S128"
target triple = "x86_64-pc-linux-gnu"

%struct.OGLContext = type { ptr, i32, i32, float, i32, i32, i8, i8, i8, i8, i32, i8, ptr, i32, i32, i8 }

@vertexCacheIndex = internal global i32 0, align 4
@j2d_glDrawArrays = external global ptr, align 8
@j2d_glPixelStorei = external global ptr, align 8
@j2d_glDisable = external global ptr, align 8
@maskCacheIndex = internal global i32 0, align 4

; Function Attrs: nounwind uwtable
define hidden void @OGLVertexCache_RestoreColorState(ptr noundef %0) #0 {
  %2 = alloca ptr, align 8
  store ptr %0, ptr %2, align 8
  %3 = load ptr, ptr %2, align 8
  %4 = getelementptr inbounds %struct.OGLContext, ptr %3, i32 0, i32 10
  %5 = load i32, ptr %4, align 8
  %6 = sext i32 %5 to i64
  %7 = icmp eq i64 %6, 1
  br i1 %7, label %8, label %13

8:                                                ; preds = %1
  %9 = load ptr, ptr %2, align 8
  %10 = load ptr, ptr %2, align 8
  %11 = getelementptr inbounds %struct.OGLContext, ptr %10, i32 0, i32 5
  %12 = load i32, ptr %11, align 8
  call void @OGLPaints_SetColor(ptr noundef %9, i32 noundef %12)
  br label %13

13:                                               ; preds = %8, %1
  ret void
}

; Function Attrs: nounwind uwtable
define hidden void @OGLVertexCache_FlushVertexCache() #0 {
  %1 = load i32, ptr @vertexCacheIndex, align 4
  %2 = icmp sgt i32 %1, 0
  br i1 %2, label %3, label %6

3:                                                ; preds = %0
  %4 = load ptr, ptr @j2d_glDrawArrays, align 8
  %5 = load i32, ptr @vertexCacheIndex, align 4
  call void %4(i32 noundef 7, i32 noundef 0, i32 noundef %5)
  br label %6

6:                                                ; preds = %3, %0
  store i32 0, ptr @vertexCacheIndex, align 4
  ret void
}

; Function Attrs: nounwind uwtable
define hidden void @OGLVertexCache_DisableMaskCache(ptr noundef %0) #0 {
  %2 = alloca ptr, align 8
  store ptr %0, ptr %2, align 8
  call void @OGLVertexCache_FlushVertexCache()
  %3 = load ptr, ptr %2, align 8
  call void @OGLVertexCache_RestoreColorState(ptr noundef %3)
  %4 = load ptr, ptr @j2d_glDisable, align 8
  call void %4(i32 noundef 3553)
  %5 = load ptr, ptr @j2d_glPixelStorei, align 8
  call void %5(i32 noundef 3317, i32 noundef 4)
  %6 = load ptr, ptr @j2d_glPixelStorei, align 8
  call void %6(i32 noundef 3316, i32 noundef 0)
  %7 = load ptr, ptr @j2d_glPixelStorei, align 8
  call void %7(i32 noundef 3315, i32 noundef 0)
  %8 = load ptr, ptr @j2d_glPixelStorei, align 8
  call void %8(i32 noundef 3314, i32 noundef 0)
  store i32 0, ptr @maskCacheIndex, align 4
  ret void
}