; Function Attrs: nounwind uwtable
define hidden void @OGLVertexCache_DisableMaskCache(ptr noundef %0) local_unnamed_addr #0 {
  %2 = load i32, ptr @vertexCacheIndex, align 4
  %3 = icmp sgt i32 %2, 0
  br i1 %3, label %4, label %OGLVertexCache_FlushVertexCache.exit

4:                                                ; preds = %1
  %5 = load ptr, ptr @j2d_glDrawArrays, align 8
  tail call void %5(i32 noundef 7, i32 noundef 0, i32 noundef %2) #6
  br label %OGLVertexCache_FlushVertexCache.exit

OGLVertexCache_FlushVertexCache.exit:             ; preds = %1, %4
  store i32 0, ptr @vertexCacheIndex, align 4
  %6 = getelementptr inbounds i8, ptr %0, i64 32
  %7 = load i32, ptr %6, align 8
  %8 = icmp eq i32 %7, 1
  br i1 %8, label %9, label %OGLVertexCache_RestoreColorState.exit

9:                                                ; preds = %OGLVertexCache_FlushVertexCache.exit
  %10 = getelementptr inbounds i8, ptr %0, i64 24
  %11 = load i32, ptr %10, align 8
  tail call void @OGLPaints_SetColor(ptr noundef nonnull %0, i32 noundef %11) #6
  br label %OGLVertexCache_RestoreColorState.exit

OGLVertexCache_RestoreColorState.exit:            ; preds = %OGLVertexCache_FlushVertexCache.exit, %9
  %12 = load ptr, ptr @j2d_glDisable, align 8
  tail call void %12(i32 noundef 3553) #6
  %13 = load ptr, ptr @j2d_glPixelStorei, align 8
  tail call void %13(i32 noundef 3317, i32 noundef 4) #6
  %14 = load ptr, ptr @j2d_glPixelStorei, align 8
  tail call void %14(i32 noundef 3316, i32 noundef 0) #6
  %15 = load ptr, ptr @j2d_glPixelStorei, align 8
  tail call void %15(i32 noundef 3315, i32 noundef 0) #6
  %16 = load ptr, ptr @j2d_glPixelStorei, align 8
  tail call void %16(i32 noundef 3314, i32 noundef 0) #6
  store i32 0, ptr @maskCacheIndex, align 4
  ret void
}